target datalayout = "e-m:e-p270:32:32-p271:32:32-p272:64:64-i64:64-i128:128-f80:128-n8:16:32:64-S128"
target triple = "x86_64-pc-linux-gnu"

%struct.DenseLayer = type { ptr, ptr, i32, i32, i32 }

@.str.14 = private unnamed_addr constant [30 x i8] c"Assertion %s failed at %s:%d\0A\00", align 1
@.str.15 = private unnamed_addr constant [2 x i8] c"0\00", align 1
@.str.16 = private unnamed_addr constant [24 x i8] c"libavfilter/af_arnndn.c\00", align 1

; Function Attrs: inlinehint nounwind uwtable
define internal float @tansig_approx(float noundef %0) #6 {
  %2 = alloca float, align 4
  %3 = alloca float, align 4
  %4 = alloca float, align 4
  %5 = alloca float, align 4
  %6 = alloca float, align 4
  %7 = alloca i32, align 4
  %8 = alloca i32, align 4
  store float %0, ptr %3, align 4, !tbaa !30
  call void @llvm.lifetime.start.p0(i64 4, ptr %4) #11
  call void @llvm.lifetime.start.p0(i64 4, ptr %5) #11
  call void @llvm.lifetime.start.p0(i64 4, ptr %6) #11
  store float 1.000000e+00, ptr %6, align 4, !tbaa !30
  call void @llvm.lifetime.start.p0(i64 4, ptr %7) #11
  %9 = load float, ptr %3, align 4, !tbaa !30
  %10 = fcmp nsz olt float %9, 8.000000e+00
  br i1 %10, label %12, label %11

11:                                               ; preds = %1
  store float 1.000000e+00, ptr %2, align 4
  store i32 1, ptr %8, align 4
  br label %56

12:                                               ; preds = %1
  %13 = load float, ptr %3, align 4, !tbaa !30
  %14 = fcmp nsz ogt float %13, -8.000000e+00
  br i1 %14, label %16, label %15

15:                                               ; preds = %12
  store float -1.000000e+00, ptr %2, align 4
  store i32 1, ptr %8, align 4
  br label %56

16:                                               ; preds = %12
  %17 = load float, ptr %3, align 4, !tbaa !30
  %18 = call i1 @llvm.is.fpclass.f32(float %17, i32 3)
  br i1 %18, label %19, label %20

19:                                               ; preds = %16
  store float 0.000000e+00, ptr %2, align 4
  store i32 1, ptr %8, align 4
  br label %56

20:                                               ; preds = %16
  %21 = load float, ptr %3, align 4, !tbaa !30
  %22 = fcmp nsz olt float %21, 0.000000e+00
  br i1 %22, label %23, label %26

23:                                               ; preds = %20
  %24 = load float, ptr %3, align 4, !tbaa !30
  %25 = fneg nsz float %24
  store float %25, ptr %3, align 4, !tbaa !30
  store float -1.000000e+00, ptr %6, align 4, !tbaa !30
  br label %26

26:                                               ; preds = %23, %20
  %27 = load float, ptr %3, align 4, !tbaa !30
  %28 = call nsz float @llvm.fmuladd.f32(float 2.500000e+01, float %27, float 5.000000e-01)
  %29 = fpext nsz float %28 to double
  %30 = call nsz double @llvm.floor.f64(double %29)
  %31 = fptosi double %30 to i32
  store i32 %31, ptr %7, align 4, !tbaa !29
  %32 = load i32, ptr %7, align 4, !tbaa !29
  %33 = sitofp i32 %32 to float
  %34 = load float, ptr %3, align 4, !tbaa !30
  %35 = call nsz float @llvm.fmuladd.f32(float 0xBFA47AE140000000, float %33, float %34)
  store float %35, ptr %3, align 4, !tbaa !30
  %36 = load i32, ptr %7, align 4, !tbaa !29
  %37 = sext i32 %36 to i64
  %38 = getelementptr inbounds [201 x float], ptr @tansig_table, i64 0, i64 %37
  %39 = load float, ptr %38, align 4, !tbaa !30
  store float %39, ptr %4, align 4, !tbaa !30
  %40 = load float, ptr %4, align 4, !tbaa !30
  %41 = load float, ptr %4, align 4, !tbaa !30
  %42 = fneg nsz float %40
  %43 = call nsz float @llvm.fmuladd.f32(float %42, float %41, float 1.000000e+00)
  store float %43, ptr %5, align 4, !tbaa !30
  %44 = load float, ptr %4, align 4, !tbaa !30
  %45 = load float, ptr %3, align 4, !tbaa !30
  %46 = load float, ptr %5, align 4, !tbaa !30
  %47 = fmul nsz float %45, %46
  %48 = load float, ptr %4, align 4, !tbaa !30
  %49 = load float, ptr %3, align 4, !tbaa !30
  %50 = fneg nsz float %48
  %51 = call nsz float @llvm.fmuladd.f32(float %50, float %49, float 1.000000e+00)
  %52 = call nsz float @llvm.fmuladd.f32(float %47, float %51, float %44)
  store float %52, ptr %4, align 4, !tbaa !30
  %53 = load float, ptr %6, align 4, !tbaa !30
  %54 = load float, ptr %4, align 4, !tbaa !30
  %55 = fmul nsz float %53, %54
  store float %55, ptr %2, align 4
  store i32 1, ptr %8, align 4
  br label %56

56:                                               ; preds = %26, %19, %15, %11
  call void @llvm.lifetime.end.p0(i64 4, ptr %7) #11
  call void @llvm.lifetime.end.p0(i64 4, ptr %6) #11
  call void @llvm.lifetime.end.p0(i64 4, ptr %5) #11
  call void @llvm.lifetime.end.p0(i64 4, ptr %4) #11
  %57 = load float, ptr %2, align 4
  ret float %57
}

; Function Attrs: inlinehint nounwind uwtable
define internal float @sigmoid_approx(float noundef %0) #6 {
  %2 = alloca float, align 4
  store float %0, ptr %2, align 4, !tbaa !30
  %3 = load float, ptr %2, align 4, !tbaa !30
  %4 = fmul nsz float 5.000000e-01, %3
  %5 = call nsz float @tansig_approx(float noundef %4)
  %6 = call nsz float @llvm.fmuladd.f32(float 5.000000e-01, float %5, float 5.000000e-01)
  ret float %6
}

; Function Attrs: nounwind uwtable
define internal void @compute_dense(ptr noundef %0, ptr noundef %1, ptr noundef %2) #1 {
  %4 = alloca ptr, align 8
  %5 = alloca ptr, align 8
  %6 = alloca ptr, align 8
  %7 = alloca i32, align 4
  %8 = alloca i32, align 4
  %9 = alloca i32, align 4
  %10 = alloca i32, align 4
  %11 = alloca i32, align 4
  %12 = alloca float, align 4
  %13 = alloca i32, align 4
  %14 = alloca i32, align 4
  %15 = alloca i32, align 4
  %16 = alloca i32, align 4
  store ptr %0, ptr %4, align 8, !tbaa !88
  store ptr %1, ptr %5, align 8, !tbaa !44
  store ptr %2, ptr %6, align 8, !tbaa !44
  call void @llvm.lifetime.start.p0(i64 4, ptr %7) #11
  %17 = load ptr, ptr %4, align 8, !tbaa !88
  %18 = getelementptr inbounds nuw %struct.DenseLayer, ptr %17, i32 0, i32 3
  %19 = load i32, ptr %18, align 4, !tbaa !98
  store i32 %19, ptr %7, align 4, !tbaa !29
  call void @llvm.lifetime.start.p0(i64 4, ptr %8) #11
  %20 = load ptr, ptr %4, align 8, !tbaa !88
  %21 = getelementptr inbounds nuw %struct.DenseLayer, ptr %20, i32 0, i32 2
  %22 = load i32, ptr %21, align 8, !tbaa !96
  store i32 %22, ptr %8, align 4, !tbaa !29
  call void @llvm.lifetime.start.p0(i64 4, ptr %9) #11
  %23 = load i32, ptr %7, align 4, !tbaa !29
  store i32 %23, ptr %9, align 4, !tbaa !29
  call void @llvm.lifetime.start.p0(i64 4, ptr %10) #11
  store i32 0, ptr %10, align 4, !tbaa !29
  br label %24

24:                                               ; preds = %71, %3
  %25 = load i32, ptr %10, align 4, !tbaa !29
  %26 = load i32, ptr %7, align 4, !tbaa !29
  %27 = icmp slt i32 %25, %26
  br i1 %27, label %29, label %28

28:                                               ; preds = %24
  store i32 2, ptr %11, align 4
  call void @llvm.lifetime.end.p0(i64 4, ptr %10) #11
  br label %74

29:                                               ; preds = %24
  call void @llvm.lifetime.start.p0(i64 4, ptr %12) #11
  %30 = load ptr, ptr %4, align 8, !tbaa !88
  %31 = getelementptr inbounds nuw %struct.DenseLayer, ptr %30, i32 0, i32 0
  %32 = load ptr, ptr %31, align 8, !tbaa !105
  %33 = load i32, ptr %10, align 4, !tbaa !29
  %34 = sext i32 %33 to i64
  %35 = getelementptr inbounds float, ptr %32, i64 %34
  %36 = load float, ptr %35, align 4, !tbaa !30
  store float %36, ptr %12, align 4, !tbaa !30
  call void @llvm.lifetime.start.p0(i64 4, ptr %13) #11
  store i32 0, ptr %13, align 4, !tbaa !29
  br label %37

37:                                               ; preds = %61, %29
  %38 = load i32, ptr %13, align 4, !tbaa !29
  %39 = load i32, ptr %8, align 4, !tbaa !29
  %40 = icmp slt i32 %38, %39
  br i1 %40, label %42, label %41

41:                                               ; preds = %37
  store i32 5, ptr %11, align 4
  call void @llvm.lifetime.end.p0(i64 4, ptr %13) #11
  br label %64

42:                                               ; preds = %37
  %43 = load ptr, ptr %4, align 8, !tbaa !88
  %44 = getelementptr inbounds nuw %struct.DenseLayer, ptr %43, i32 0, i32 1
  %45 = load ptr, ptr %44, align 8, !tbaa !102
  %46 = load i32, ptr %13, align 4, !tbaa !29
  %47 = load i32, ptr %9, align 4, !tbaa !29
  %48 = mul nsw i32 %46, %47
  %49 = load i32, ptr %10, align 4, !tbaa !29
  %50 = add nsw i32 %48, %49
  %51 = sext i32 %50 to i64
  %52 = getelementptr inbounds float, ptr %45, i64 %51
  %53 = load float, ptr %52, align 4, !tbaa !30
  %54 = load ptr, ptr %6, align 8, !tbaa !44
  %55 = load i32, ptr %13, align 4, !tbaa !29
  %56 = sext i32 %55 to i64
  %57 = getelementptr inbounds float, ptr %54, i64 %56
  %58 = load float, ptr %57, align 4, !tbaa !30
  %59 = load float, ptr %12, align 4, !tbaa !30
  %60 = call nsz float @llvm.fmuladd.f32(float %53, float %58, float %59)
  store float %60, ptr %12, align 4, !tbaa !30
  br label %61

61:                                               ; preds = %42
  %62 = load i32, ptr %13, align 4, !tbaa !29
  %63 = add nsw i32 %62, 1
  store i32 %63, ptr %13, align 4, !tbaa !29
  br label %37, !llvm.loop !248

64:                                               ; preds = %41
  %65 = load float, ptr %12, align 4, !tbaa !30
  %66 = fmul nsz float 3.906250e-03, %65
  %67 = load ptr, ptr %5, align 8, !tbaa !44
  %68 = load i32, ptr %10, align 4, !tbaa !29
  %69 = sext i32 %68 to i64
  %70 = getelementptr inbounds float, ptr %67, i64 %69
  store float %66, ptr %70, align 4, !tbaa !30
  call void @llvm.lifetime.end.p0(i64 4, ptr %12) #11
  br label %71

71:                                               ; preds = %64
  %72 = load i32, ptr %10, align 4, !tbaa !29
  %73 = add nsw i32 %72, 1
  store i32 %73, ptr %10, align 4, !tbaa !29
  br label %24, !llvm.loop !249

74:                                               ; preds = %28
  %75 = load ptr, ptr %4, align 8, !tbaa !88
  %76 = getelementptr inbounds nuw %struct.DenseLayer, ptr %75, i32 0, i32 4
  %77 = load i32, ptr %76, align 8, !tbaa !100
  %78 = icmp eq i32 %77, 1
  br i1 %78, label %79, label %100

79:                                               ; preds = %74
  call void @llvm.lifetime.start.p0(i64 4, ptr %14) #11
  store i32 0, ptr %14, align 4, !tbaa !29
  br label %80

80:                                               ; preds = %96, %79
  %81 = load i32, ptr %14, align 4, !tbaa !29
  %82 = load i32, ptr %7, align 4, !tbaa !29
  %83 = icmp slt i32 %81, %82
  br i1 %83, label %85, label %84

84:                                               ; preds = %80
  store i32 8, ptr %11, align 4
  call void @llvm.lifetime.end.p0(i64 4, ptr %14) #11
  br label %99

85:                                               ; preds = %80
  %86 = load ptr, ptr %5, align 8, !tbaa !44
  %87 = load i32, ptr %14, align 4, !tbaa !29
  %88 = sext i32 %87 to i64
  %89 = getelementptr inbounds float, ptr %86, i64 %88
  %90 = load float, ptr %89, align 4, !tbaa !30
  %91 = call nsz float @sigmoid_approx(float noundef %90)
  %92 = load ptr, ptr %5, align 8, !tbaa !44
  %93 = load i32, ptr %14, align 4, !tbaa !29
  %94 = sext i32 %93 to i64
  %95 = getelementptr inbounds float, ptr %92, i64 %94
  store float %91, ptr %95, align 4, !tbaa !30
  br label %96

96:                                               ; preds = %85
  %97 = load i32, ptr %14, align 4, !tbaa !29
  %98 = add nsw i32 %97, 1
  store i32 %98, ptr %14, align 4, !tbaa !29
  br label %80, !llvm.loop !250

99:                                               ; preds = %84
  br label %167

100:                                              ; preds = %74
  %101 = load ptr, ptr %4, align 8, !tbaa !88
  %102 = getelementptr inbounds nuw %struct.DenseLayer, ptr %101, i32 0, i32 4
  %103 = load i32, ptr %102, align 8, !tbaa !100
  %104 = icmp eq i32 %103, 0
  br i1 %104, label %105, label %126

105:                                              ; preds = %100
  call void @llvm.lifetime.start.p0(i64 4, ptr %15) #11
  store i32 0, ptr %15, align 4, !tbaa !29
  br label %106

106:                                              ; preds = %122, %105
  %107 = load i32, ptr %15, align 4, !tbaa !29
  %108 = load i32, ptr %7, align 4, !tbaa !29
  %109 = icmp slt i32 %107, %108
  br i1 %109, label %111, label %110

110:                                              ; preds = %106
  store i32 11, ptr %11, align 4
  call void @llvm.lifetime.end.p0(i64 4, ptr %15) #11
  br label %125

111:                                              ; preds = %106
  %112 = load ptr, ptr %5, align 8, !tbaa !44
  %113 = load i32, ptr %15, align 4, !tbaa !29
  %114 = sext i32 %113 to i64
  %115 = getelementptr inbounds float, ptr %112, i64 %114
  %116 = load float, ptr %115, align 4, !tbaa !30
  %117 = call nsz float @tansig_approx(float noundef %116)
  %118 = load ptr, ptr %5, align 8, !tbaa !44
  %119 = load i32, ptr %15, align 4, !tbaa !29
  %120 = sext i32 %119 to i64
  %121 = getelementptr inbounds float, ptr %118, i64 %120
  store float %117, ptr %121, align 4, !tbaa !30
  br label %122

122:                                              ; preds = %111
  %123 = load i32, ptr %15, align 4, !tbaa !29
  %124 = add nsw i32 %123, 1
  store i32 %124, ptr %15, align 4, !tbaa !29
  br label %106, !llvm.loop !251

125:                                              ; preds = %110
  br label %166

126:                                              ; preds = %100
  %127 = load ptr, ptr %4, align 8, !tbaa !88
  %128 = getelementptr inbounds nuw %struct.DenseLayer, ptr %127, i32 0, i32 4
  %129 = load i32, ptr %128, align 8, !tbaa !100
  %130 = icmp eq i32 %129, 2
  br i1 %130, label %131, label %161

131:                                              ; preds = %126
  call void @llvm.lifetime.start.p0(i64 4, ptr %16) #11
  store i32 0, ptr %16, align 4, !tbaa !29
  br label %132

132:                                              ; preds = %157, %131
  %133 = load i32, ptr %16, align 4, !tbaa !29
  %134 = load i32, ptr %7, align 4, !tbaa !29
  %135 = icmp slt i32 %133, %134
  br i1 %135, label %137, label %136

136:                                              ; preds = %132
  store i32 14, ptr %11, align 4
  call void @llvm.lifetime.end.p0(i64 4, ptr %16) #11
  br label %160

137:                                              ; preds = %132
  %138 = load ptr, ptr %5, align 8, !tbaa !44
  %139 = load i32, ptr %16, align 4, !tbaa !29
  %140 = sext i32 %139 to i64
  %141 = getelementptr inbounds float, ptr %138, i64 %140
  %142 = load float, ptr %141, align 4, !tbaa !30
  %143 = fcmp nsz ogt float 0.000000e+00, %142
  br i1 %143, label %144, label %145

144:                                              ; preds = %137
  br label %151

145:                                              ; preds = %137
  %146 = load ptr, ptr %5, align 8, !tbaa !44
  %147 = load i32, ptr %16, align 4, !tbaa !29
  %148 = sext i32 %147 to i64
  %149 = getelementptr inbounds float, ptr %146, i64 %148
  %150 = load float, ptr %149, align 4, !tbaa !30
  br label %151

151:                                              ; preds = %145, %144
  %152 = phi nsz float [ 0.000000e+00, %144 ], [ %150, %145 ]
  %153 = load ptr, ptr %5, align 8, !tbaa !44
  %154 = load i32, ptr %16, align 4, !tbaa !29
  %155 = sext i32 %154 to i64
  %156 = getelementptr inbounds float, ptr %153, i64 %155
  store float %152, ptr %156, align 4, !tbaa !30
  br label %157

157:                                              ; preds = %151
  %158 = load i32, ptr %16, align 4, !tbaa !29
  %159 = add nsw i32 %158, 1
  store i32 %159, ptr %16, align 4, !tbaa !29
  br label %132, !llvm.loop !252

160:                                              ; preds = %136
  br label %165

161:                                              ; preds = %126
  br label %162

162:                                              ; preds = %161
  call void (ptr, i32, ptr, ...) @av_log(ptr noundef null, i32 noundef 0, ptr noundef @.str.14, ptr noundef @.str.15, ptr noundef @.str.16, i32 noundef 1275)
  call void @abort() #14
  unreachable

163:                                              ; No predecessors!
  br label %164

164:                                              ; preds = %163
  br label %165

165:                                              ; preds = %164, %160
  br label %166

166:                                              ; preds = %165, %125
  br label %167

167:                                              ; preds = %166, %99
  call void @llvm.lifetime.end.p0(i64 4, ptr %9) #11
  call void @llvm.lifetime.end.p0(i64 4, ptr %8) #11
  call void @llvm.lifetime.end.p0(i64 4, ptr %7) #11
  ret void
}