; Function Attrs: nounwind uwtable
define internal fastcc void @compute_dense(ptr noundef readonly captures(none) %0, ptr noundef nonnull captures(none) %1, ptr noundef readonly captures(none) %2) unnamed_addr #1 {
  %4 = getelementptr inbounds nuw i8, ptr %0, i64 20
  %5 = load i32, ptr %4, align 4, !tbaa !89
  %6 = getelementptr inbounds nuw i8, ptr %0, i64 16
  %7 = load i32, ptr %6, align 8, !tbaa !87
  %8 = icmp sgt i32 %5, 0
  br i1 %8, label %.lr.ph62, label %._crit_edge63

.lr.ph62:                                         ; preds = %3
  %9 = load ptr, ptr %0, align 8, !tbaa !94
  %10 = icmp sgt i32 %7, 0
  br i1 %10, label %.lr.ph62.split.us, label %.lr.ph62.split.preheader

.lr.ph62.split.preheader:                         ; preds = %.lr.ph62
  %wide.trip.count = zext nneg i32 %5 to i64
  br label %.lr.ph62.split

.lr.ph62.split.us:                                ; preds = %.lr.ph62
  %11 = getelementptr inbounds nuw i8, ptr %0, i64 8
  %12 = load ptr, ptr %11, align 8, !tbaa !92
  %13 = zext nneg i32 %5 to i64
  %wide.trip.count76 = zext nneg i32 %7 to i64
  br label %.lr.ph.us

.lr.ph.us:                                        ; preds = %._crit_edge.us, %.lr.ph62.split.us
  %indvars.iv78 = phi i64 [ %indvars.iv.next79, %._crit_edge.us ], [ 0, %.lr.ph62.split.us ]
  %14 = getelementptr inbounds nuw float, ptr %9, i64 %indvars.iv78
  %15 = load float, ptr %14, align 4, !tbaa !25
  %invariant.gep = getelementptr inbounds nuw float, ptr %12, i64 %indvars.iv78
  br label %16

16:                                               ; preds = %.lr.ph.us, %16
  %indvars.iv73 = phi i64 [ 0, %.lr.ph.us ], [ %indvars.iv.next74, %16 ]
  %.04958.us = phi float [ %15, %.lr.ph.us ], [ %21, %16 ]
  %17 = mul nuw nsw i64 %indvars.iv73, %13
  %gep = getelementptr inbounds nuw float, ptr %invariant.gep, i64 %17
  %18 = load float, ptr %gep, align 4, !tbaa !25
  %19 = getelementptr inbounds nuw float, ptr %2, i64 %indvars.iv73
  %20 = load float, ptr %19, align 4, !tbaa !25
  %21 = tail call nsz float @llvm.fmuladd.f32(float %18, float %20, float %.04958.us)
  %indvars.iv.next74 = add nuw nsw i64 %indvars.iv73, 1
  %exitcond77.not = icmp eq i64 %indvars.iv.next74, %wide.trip.count76
  br i1 %exitcond77.not, label %._crit_edge.us, label %16, !llvm.loop !200

._crit_edge.us:                                   ; preds = %16
  %22 = fmul nsz float %21, 3.906250e-03
  %23 = getelementptr inbounds nuw float, ptr %1, i64 %indvars.iv78
  store float %22, ptr %23, align 4, !tbaa !25
  %indvars.iv.next79 = add nuw nsw i64 %indvars.iv78, 1
  %exitcond82.not = icmp eq i64 %indvars.iv.next79, %13
  br i1 %exitcond82.not, label %._crit_edge63, label %.lr.ph.us, !llvm.loop !201

._crit_edge63:                                    ; preds = %.lr.ph62.split, %._crit_edge.us, %3
  %24 = getelementptr inbounds nuw i8, ptr %0, i64 24
  %25 = load i32, ptr %24, align 8, !tbaa !91
  switch i32 %25, label %82 [
    i32 1, label %.preheader
    i32 0, label %.preheader54
    i32 2, label %.preheader56
  ]

.preheader56:                                     ; preds = %._crit_edge63
  br i1 %8, label %.lr.ph.preheader, label %.loopexit

.lr.ph.preheader:                                 ; preds = %.preheader56
  %wide.trip.count86 = zext nneg i32 %5 to i64
  br label %.lr.ph

.preheader54:                                     ; preds = %._crit_edge63
  br i1 %8, label %.lr.ph66.preheader, label %.loopexit

.lr.ph66.preheader:                               ; preds = %.preheader54
  %wide.trip.count91 = zext nneg i32 %5 to i64
  br label %.lr.ph66

.preheader:                                       ; preds = %._crit_edge63
  br i1 %8, label %.lr.ph68.preheader, label %.loopexit

.lr.ph68.preheader:                               ; preds = %.preheader
  %wide.trip.count96 = zext nneg i32 %5 to i64
  br label %.lr.ph68

.lr.ph62.split:                                   ; preds = %.lr.ph62.split.preheader, %.lr.ph62.split
  %indvars.iv = phi i64 [ 0, %.lr.ph62.split.preheader ], [ %indvars.iv.next, %.lr.ph62.split ]
  %26 = getelementptr inbounds nuw float, ptr %9, i64 %indvars.iv
  %27 = load float, ptr %26, align 4, !tbaa !25
  %28 = fmul nsz float %27, 3.906250e-03
  %29 = getelementptr inbounds nuw float, ptr %1, i64 %indvars.iv
  store float %28, ptr %29, align 4, !tbaa !25
  %indvars.iv.next = add nuw nsw i64 %indvars.iv, 1
  %exitcond.not = icmp eq i64 %indvars.iv.next, %wide.trip.count
  br i1 %exitcond.not, label %._crit_edge63, label %.lr.ph62.split, !llvm.loop !201

.lr.ph68:                                         ; preds = %.lr.ph68.preheader, %sigmoid_approx.exit
  %indvars.iv93 = phi i64 [ 0, %.lr.ph68.preheader ], [ %indvars.iv.next94, %sigmoid_approx.exit ]
  %30 = getelementptr inbounds nuw float, ptr %1, i64 %indvars.iv93
  %31 = load float, ptr %30, align 4, !tbaa !25
  %32 = fmul nsz float %31, 5.000000e-01
  %33 = fcmp nsz olt float %32, 8.000000e+00
  br i1 %33, label %34, label %sigmoid_approx.exit

34:                                               ; preds = %.lr.ph68
  %35 = fcmp nsz ogt float %32, -8.000000e+00
  br i1 %35, label %36, label %sigmoid_approx.exit

36:                                               ; preds = %34
  %37 = fcmp nsz olt float %32, 0.000000e+00
  %38 = fneg nsz float %32
  %.019.i.i = select nsz i1 %37, float %38, float %32
  %39 = tail call nsz float @llvm.fmuladd.f32(float %.019.i.i, float 2.500000e+01, float 5.000000e-01)
  %40 = tail call nsz float @llvm.floor.f32(float %39)
  %41 = fptosi float %40 to i32
  %42 = sitofp i32 %41 to float
  %43 = tail call nsz float @llvm.fmuladd.f32(float %42, float 0xBFA47AE140000000, float %.019.i.i)
  %44 = sext i32 %41 to i64
  %45 = getelementptr inbounds [201 x float], ptr @tansig_table, i64 0, i64 %44
  %46 = load float, ptr %45, align 4, !tbaa !25
  %47 = fneg nsz float %46
  %48 = tail call nsz float @llvm.fmuladd.f32(float %47, float %46, float 1.000000e+00)
  %49 = fmul nsz float %43, %48
  %50 = tail call nsz float @llvm.fmuladd.f32(float %47, float %43, float 1.000000e+00)
  %51 = tail call nsz float @llvm.fmuladd.f32(float %49, float %50, float %46)
  %52 = fneg nsz float %51
  %53 = select nsz i1 %37, float %52, float %51
  br label %sigmoid_approx.exit

sigmoid_approx.exit:                              ; preds = %.lr.ph68, %34, %36
  %.0.i.i = phi nsz float [ %53, %36 ], [ 1.000000e+00, %.lr.ph68 ], [ -1.000000e+00, %34 ]
  %54 = tail call nsz float @llvm.fmuladd.f32(float %.0.i.i, float 5.000000e-01, float 5.000000e-01)
  store float %54, ptr %30, align 4, !tbaa !25
  %indvars.iv.next94 = add nuw nsw i64 %indvars.iv93, 1
  %exitcond97.not = icmp eq i64 %indvars.iv.next94, %wide.trip.count96
  br i1 %exitcond97.not, label %.loopexit, label %.lr.ph68, !llvm.loop !202

.lr.ph66:                                         ; preds = %.lr.ph66.preheader, %tansig_approx.exit
  %indvars.iv88 = phi i64 [ 0, %.lr.ph66.preheader ], [ %indvars.iv.next89, %tansig_approx.exit ]
  %55 = getelementptr inbounds nuw float, ptr %1, i64 %indvars.iv88
  %56 = load float, ptr %55, align 4, !tbaa !25
  %57 = fcmp nsz olt float %56, 8.000000e+00
  br i1 %57, label %58, label %tansig_approx.exit

58:                                               ; preds = %.lr.ph66
  %59 = fcmp nsz ogt float %56, -8.000000e+00
  br i1 %59, label %60, label %tansig_approx.exit

60:                                               ; preds = %58
  %61 = fcmp nsz olt float %56, 0.000000e+00
  %62 = fneg nsz float %56
  %.019.i = select nsz i1 %61, float %62, float %56
  %63 = tail call nsz float @llvm.fmuladd.f32(float %.019.i, float 2.500000e+01, float 5.000000e-01)
  %64 = tail call nsz float @llvm.floor.f32(float %63)
  %65 = fptosi float %64 to i32
  %66 = sitofp i32 %65 to float
  %67 = tail call nsz float @llvm.fmuladd.f32(float %66, float 0xBFA47AE140000000, float %.019.i)
  %68 = sext i32 %65 to i64
  %69 = getelementptr inbounds [201 x float], ptr @tansig_table, i64 0, i64 %68
  %70 = load float, ptr %69, align 4, !tbaa !25
  %71 = fneg nsz float %70
  %72 = tail call nsz float @llvm.fmuladd.f32(float %71, float %70, float 1.000000e+00)
  %73 = fmul nsz float %67, %72
  %74 = tail call nsz float @llvm.fmuladd.f32(float %71, float %67, float 1.000000e+00)
  %75 = tail call nsz float @llvm.fmuladd.f32(float %73, float %74, float %70)
  %76 = fneg nsz float %75
  %77 = select nsz i1 %61, float %76, float %75
  br label %tansig_approx.exit

tansig_approx.exit:                               ; preds = %.lr.ph66, %58, %60
  %.0.i = phi nsz float [ %77, %60 ], [ 1.000000e+00, %.lr.ph66 ], [ -1.000000e+00, %58 ]
  store float %.0.i, ptr %55, align 4, !tbaa !25
  %indvars.iv.next89 = add nuw nsw i64 %indvars.iv88, 1
  %exitcond92.not = icmp eq i64 %indvars.iv.next89, %wide.trip.count91
  br i1 %exitcond92.not, label %.loopexit, label %.lr.ph66, !llvm.loop !203

.lr.ph:                                           ; preds = %.lr.ph.preheader, %.lr.ph
  %indvars.iv83 = phi i64 [ 0, %.lr.ph.preheader ], [ %indvars.iv.next84, %.lr.ph ]
  %78 = getelementptr inbounds nuw float, ptr %1, i64 %indvars.iv83
  %79 = load float, ptr %78, align 4, !tbaa !25
  %80 = fcmp nsz olt float %79, 0.000000e+00
  %81 = select nsz i1 %80, float 0.000000e+00, float %79
  store float %81, ptr %78, align 4, !tbaa !25
  %indvars.iv.next84 = add nuw nsw i64 %indvars.iv83, 1
  %exitcond87.not = icmp eq i64 %indvars.iv.next84, %wide.trip.count86
  br i1 %exitcond87.not, label %.loopexit, label %.lr.ph, !llvm.loop !204

82:                                               ; preds = %._crit_edge63
  tail call void (ptr, i32, ptr, ...) @av_log(ptr noundef null, i32 noundef 0, ptr noundef nonnull @.str.14, ptr noundef nonnull @.str.15, ptr noundef nonnull @.str.16, i32 noundef 1275) #11
  tail call void @abort() #13
  unreachable

.loopexit:                                        ; preds = %.lr.ph, %tansig_approx.exit, %sigmoid_approx.exit, %.preheader56, %.preheader54, %.preheader
  ret void
}